; Function Attrs: mustprogress uwtable
define void @_ZNK6casadi11Determinant10ad_forwardERKSt6vectorIS1_INS_2MXESaIS2_EESaIS4_EERS6_(ptr noundef nonnull align 8 dereferenceable(64) %0, ptr nocapture noundef nonnull readonly align 8 dereferenceable(24) %1, ptr nocapture noundef nonnull readonly align 8 dereferenceable(24) %2) unnamed_addr #3 align 2 personality ptr @__gxx_personality_v0 {
  %4 = alloca %"class.casadi::MX", align 8
  %5 = alloca %"class.casadi::MX", align 8
  %6 = alloca %"class.casadi::MX", align 8
  %7 = alloca %"class.casadi::MX", align 8
  %8 = alloca %"class.casadi::MX", align 8
  %9 = getelementptr inbounds i8, ptr %0, i64 32
  %10 = getelementptr inbounds i8, ptr %0, i64 40
  %11 = load ptr, ptr %10, align 8
  %12 = load ptr, ptr %9, align 8
  %.not.i.i.i.not = icmp eq ptr %11, %12
  br i1 %.not.i.i.i.not, label %13, label %_ZNK6casadi6MXNode3depEx.exit

13:                                               ; preds = %3
  tail call void (ptr, ...) @_ZSt24__throw_out_of_range_fmtPKcz(ptr noundef nonnull @.str.11, i64 noundef 0, i64 noundef 0) #13
  unreachable

_ZNK6casadi6MXNode3depEx.exit:                    ; preds = %3
  call void @_ZNK6casadi20SharedObjectInternal16shared_from_thisINS_2MXEEEKT_v(ptr dead_on_unwind nonnull writable sret(%"class.casadi::MX") align 8 %4, ptr noundef nonnull align 8 dereferenceable(24) %0)
  invoke void @_ZN6casadi3invERKNS_2MXE(ptr dead_on_unwind nonnull writable sret(%"class.casadi::MX") align 8 %6, ptr noundef nonnull align 8 dereferenceable(8) %12)
          to label %14 unwind label %34

14:                                               ; preds = %_ZNK6casadi6MXNode3depEx.exit
  invoke void @_ZNK6casadi2MX1TEv(ptr dead_on_unwind nonnull writable sret(%"class.casadi::MX") align 8 %5, ptr noundef nonnull align 8 dereferenceable(8) %6)
          to label %15 unwind label %36

15:                                               ; preds = %14
  call void @_ZN6casadi2MXD1Ev(ptr noundef nonnull align 8 dereferenceable(8) %6) #12
  %16 = getelementptr inbounds i8, ptr %2, i64 8
  %17 = load ptr, ptr %16, align 8
  %18 = load ptr, ptr %2, align 8
  %.not = icmp eq ptr %17, %18
  br i1 %.not, label %._crit_edge, label %.lr.ph

.lr.ph:                                           ; preds = %15, %_ZN6casadi2MXaSERKS0_.exit
  %.017 = phi i64 [ %26, %_ZN6casadi2MXaSERKS0_.exit ], [ 0, %15 ]
  %19 = load ptr, ptr %1, align 8
  %20 = getelementptr inbounds %"class.std::vector", ptr %19, i64 %.017
  %21 = load ptr, ptr %20, align 8
  invoke void @_ZN6casadi2MX3dotERKS0_S2_(ptr dead_on_unwind nonnull writable sret(%"class.casadi::MX") align 8 %8, ptr noundef nonnull align 8 dereferenceable(8) %5, ptr noundef nonnull align 8 dereferenceable(8) %21)
          to label %_ZN6casadi3dotERKNS_2MXES2_.exit unwind label %38

_ZN6casadi3dotERKNS_2MXES2_.exit:                 ; preds = %.lr.ph
  invoke void @_ZN6casadi2MX6binaryExRKS0_S2_(ptr dead_on_unwind nonnull writable sret(%"class.casadi::MX") align 8 %7, i64 noundef 3, ptr noundef nonnull align 8 dereferenceable(8) %4, ptr noundef nonnull align 8 dereferenceable(8) %8)
          to label %_ZN6casadimlERKNS_2MXES2_.exit unwind label %40

_ZN6casadimlERKNS_2MXES2_.exit:                   ; preds = %_ZN6casadi3dotERKNS_2MXES2_.exit
  %22 = load ptr, ptr %2, align 8
  %23 = getelementptr inbounds %"class.std::vector", ptr %22, i64 %.017
  %24 = load ptr, ptr %23, align 8
  %25 = invoke noundef nonnull align 8 dereferenceable(8) ptr @_ZN6casadi12SharedObjectaSERKS0_(ptr noundef nonnull align 8 dereferenceable(8) %24, ptr noundef nonnull align 8 dereferenceable(8) %7)
          to label %_ZN6casadi2MXaSERKS0_.exit unwind label %42

_ZN6casadi2MXaSERKS0_.exit:                       ; preds = %_ZN6casadimlERKNS_2MXES2_.exit
  call void @_ZN6casadi2MXD1Ev(ptr noundef nonnull align 8 dereferenceable(8) %7) #12
  call void @_ZN6casadi2MXD1Ev(ptr noundef nonnull align 8 dereferenceable(8) %8) #12
  %26 = add nuw nsw i64 %.017, 1
  %27 = load ptr, ptr %16, align 8
  %28 = load ptr, ptr %2, align 8
  %29 = ptrtoint ptr %27 to i64
  %30 = ptrtoint ptr %28 to i64
  %31 = sub i64 %29, %30
  %32 = sdiv exact i64 %31, 24
  %33 = icmp ult i64 %26, %32
  br i1 %33, label %.lr.ph, label %._crit_edge, !llvm.loop !9

34:                                               ; preds = %_ZNK6casadi6MXNode3depEx.exit
  %35 = landingpad { ptr, i32 }
          cleanup
  br label %46

36:                                               ; preds = %14
  %37 = landingpad { ptr, i32 }
          cleanup
  call void @_ZN6casadi2MXD1Ev(ptr noundef nonnull align 8 dereferenceable(8) %6) #12
  br label %46

38:                                               ; preds = %.lr.ph
  %39 = landingpad { ptr, i32 }
          cleanup
  br label %45

40:                                               ; preds = %_ZN6casadi3dotERKNS_2MXES2_.exit
  %41 = landingpad { ptr, i32 }
          cleanup
  br label %44

42:                                               ; preds = %_ZN6casadimlERKNS_2MXES2_.exit
  %43 = landingpad { ptr, i32 }
          cleanup
  call void @_ZN6casadi2MXD1Ev(ptr noundef nonnull align 8 dereferenceable(8) %7) #12
  br label %44

44:                                               ; preds = %42, %40
  %.pn = phi { ptr, i32 } [ %43, %42 ], [ %41, %40 ]
  call void @_ZN6casadi2MXD1Ev(ptr noundef nonnull align 8 dereferenceable(8) %8) #12
  br label %45

._crit_edge:                                      ; preds = %_ZN6casadi2MXaSERKS0_.exit, %15
  call void @_ZN6casadi2MXD1Ev(ptr noundef nonnull align 8 dereferenceable(8) %5) #12
  call void @_ZN6casadi2MXD1Ev(ptr noundef nonnull align 8 dereferenceable(8) %4) #12
  ret void

45:                                               ; preds = %44, %38
  %.pn.pn = phi { ptr, i32 } [ %.pn, %44 ], [ %39, %38 ]
  call void @_ZN6casadi2MXD1Ev(ptr noundef nonnull align 8 dereferenceable(8) %5) #12
  br label %46

46:                                               ; preds = %45, %36, %34
  %.pn.pn.pn = phi { ptr, i32 } [ %.pn.pn, %45 ], [ %37, %36 ], [ %35, %34 ]
  call void @_ZN6casadi2MXD1Ev(ptr noundef nonnull align 8 dereferenceable(8) %4) #12
  resume { ptr, i32 } %.pn.pn.pn
}